target datalayout = "e-m:e-p270:32:32-p271:32:32-p272:64:64-i64:64-i128:128-f80:128-n8:16:32:64-S128"
target triple = "x86_64-pc-linux-gnu"

%struct.expert_field = type { i32, i32 }
%struct.ieee80211_tagged_field_data = type { i32, ptr, i8, ptr, ptr }

@ei_ieee80211_tag_length = internal global %struct.expert_field zeroinitializer, align 4
@hf_ieee80211_tag_wakeup_schedule_offset = internal global i32 0, align 4
@hf_ieee80211_tag_wakeup_schedule_interval = internal global i32 0, align 4
@hf_ieee80211_tag_wakeup_schedule_awake_window_slots = internal global i32 0, align 4
@hf_ieee80211_tag_wakeup_schedule_max_awake_dur = internal global i32 0, align 4
@hf_ieee80211_tag_wakeup_schedule_idle_count = internal global i32 0, align 4
@.str.10121 = private unnamed_addr constant [57 x i8] c"Wakeup Schedule content length must be at least 18 bytes\00", align 1

; Function Attrs: null_pointer_is_valid sspstrong uwtable
define internal i32 @dissect_wakeup_schedule(ptr noundef %0, ptr noundef %1, ptr noundef %2, ptr noundef %3) #1 {
  %5 = alloca i32, align 4
  %6 = alloca ptr, align 8
  %7 = alloca ptr, align 8
  %8 = alloca ptr, align 8
  %9 = alloca ptr, align 8
  %10 = alloca i32, align 4
  %11 = alloca ptr, align 8
  %12 = alloca i32, align 4
  %13 = alloca i32, align 4
  store ptr %0, ptr %6, align 8
  store ptr %1, ptr %7, align 8
  store ptr %2, ptr %8, align 8
  store ptr %3, ptr %9, align 8
  call void @llvm.lifetime.start.p0(i64 4, ptr %10) #19
  %14 = load ptr, ptr %6, align 8
  %15 = call i32 @tvb_reported_length(ptr noundef %14)
  store i32 %15, ptr %10, align 4
  call void @llvm.lifetime.start.p0(i64 8, ptr %11) #19
  %16 = load ptr, ptr %9, align 8
  store ptr %16, ptr %11, align 8
  call void @llvm.lifetime.start.p0(i64 4, ptr %12) #19
  store i32 0, ptr %12, align 4
  %17 = load i32, ptr %10, align 4
  %18 = icmp slt i32 %17, 18
  br i1 %18, label %19, label %27

19:                                               ; preds = %4
  %20 = load ptr, ptr %7, align 8
  %21 = load ptr, ptr %11, align 8
  %22 = getelementptr inbounds nuw %struct.ieee80211_tagged_field_data, ptr %21, i32 0, i32 4
  %23 = load ptr, ptr %22, align 8
  %24 = call ptr (ptr, ptr, ptr, ptr, ...) @expert_add_info_format(ptr noundef %20, ptr noundef %23, ptr noundef @ei_ieee80211_tag_length, ptr noundef @.str.10121)
  %25 = load ptr, ptr %6, align 8
  %26 = call i32 @tvb_captured_length(ptr noundef %25)
  store i32 %26, ptr %5, align 4
  store i32 1, ptr %13, align 4
  br label %63

27:                                               ; preds = %4
  %28 = load ptr, ptr %8, align 8
  %29 = load i32, ptr @hf_ieee80211_tag_wakeup_schedule_offset, align 4
  %30 = load ptr, ptr %6, align 8
  %31 = load i32, ptr %12, align 4
  %32 = call ptr @proto_tree_add_item(ptr noundef %28, i32 noundef %29, ptr noundef %30, i32 noundef %31, i32 noundef 4, i32 noundef -2147483648)
  %33 = load i32, ptr %12, align 4
  %34 = add i32 %33, 4
  store i32 %34, ptr %12, align 4
  %35 = load ptr, ptr %8, align 8
  %36 = load i32, ptr @hf_ieee80211_tag_wakeup_schedule_interval, align 4
  %37 = load ptr, ptr %6, align 8
  %38 = load i32, ptr %12, align 4
  %39 = call ptr @proto_tree_add_item(ptr noundef %35, i32 noundef %36, ptr noundef %37, i32 noundef %38, i32 noundef 4, i32 noundef -2147483648)
  %40 = load i32, ptr %12, align 4
  %41 = add i32 %40, 4
  store i32 %41, ptr %12, align 4
  %42 = load ptr, ptr %8, align 8
  %43 = load i32, ptr @hf_ieee80211_tag_wakeup_schedule_awake_window_slots, align 4
  %44 = load ptr, ptr %6, align 8
  %45 = load i32, ptr %12, align 4
  %46 = call ptr @proto_tree_add_item(ptr noundef %42, i32 noundef %43, ptr noundef %44, i32 noundef %45, i32 noundef 4, i32 noundef -2147483648)
  %47 = load i32, ptr %12, align 4
  %48 = add i32 %47, 4
  store i32 %48, ptr %12, align 4
  %49 = load ptr, ptr %8, align 8
  %50 = load i32, ptr @hf_ieee80211_tag_wakeup_schedule_max_awake_dur, align 4
  %51 = load ptr, ptr %6, align 8
  %52 = load i32, ptr %12, align 4
  %53 = call ptr @proto_tree_add_item(ptr noundef %49, i32 noundef %50, ptr noundef %51, i32 noundef %52, i32 noundef 4, i32 noundef -2147483648)
  %54 = load i32, ptr %12, align 4
  %55 = add i32 %54, 4
  store i32 %55, ptr %12, align 4
  %56 = load ptr, ptr %8, align 8
  %57 = load i32, ptr @hf_ieee80211_tag_wakeup_schedule_idle_count, align 4
  %58 = load ptr, ptr %6, align 8
  %59 = load i32, ptr %12, align 4
  %60 = call ptr @proto_tree_add_item(ptr noundef %56, i32 noundef %57, ptr noundef %58, i32 noundef %59, i32 noundef 2, i32 noundef -2147483648)
  %61 = load ptr, ptr %6, align 8
  %62 = call i32 @tvb_captured_length(ptr noundef %61)
  store i32 %62, ptr %5, align 4
  store i32 1, ptr %13, align 4
  br label %63

63:                                               ; preds = %27, %19
  call void @llvm.lifetime.end.p0(i64 4, ptr %12) #19
  call void @llvm.lifetime.end.p0(i64 8, ptr %11) #19
  call void @llvm.lifetime.end.p0(i64 4, ptr %10) #19
  %64 = load i32, ptr %5, align 4
  ret i32 %64
}