; Function Attrs: null_pointer_is_valid sspstrong uwtable
define internal i32 @dissect_wakeup_schedule(ptr noundef %0, ptr noundef %1, ptr noundef %2, ptr noundef readonly captures(none) %3) #2 {
  %5 = tail call i32 @tvb_reported_length(ptr noundef %0)
  %6 = icmp slt i32 %5, 18
  br i1 %6, label %7, label %11

7:                                                ; preds = %4
  %8 = getelementptr inbounds nuw i8, ptr %3, i64 32
  %9 = load ptr, ptr %8, align 8
  %10 = tail call ptr (ptr, ptr, ptr, ptr, ...) @expert_add_info_format(ptr noundef %1, ptr noundef %9, ptr noundef nonnull @ei_ieee80211_tag_length, ptr noundef nonnull @.str.10121)
  br label %22

11:                                               ; preds = %4
  %12 = load i32, ptr @hf_ieee80211_tag_wakeup_schedule_offset, align 4
  %13 = tail call ptr @proto_tree_add_item(ptr noundef %2, i32 noundef %12, ptr noundef %0, i32 noundef 0, i32 noundef 4, i32 noundef -2147483648)
  %14 = load i32, ptr @hf_ieee80211_tag_wakeup_schedule_interval, align 4
  %15 = tail call ptr @proto_tree_add_item(ptr noundef %2, i32 noundef %14, ptr noundef %0, i32 noundef 4, i32 noundef 4, i32 noundef -2147483648)
  %16 = load i32, ptr @hf_ieee80211_tag_wakeup_schedule_awake_window_slots, align 4
  %17 = tail call ptr @proto_tree_add_item(ptr noundef %2, i32 noundef %16, ptr noundef %0, i32 noundef 8, i32 noundef 4, i32 noundef -2147483648)
  %18 = load i32, ptr @hf_ieee80211_tag_wakeup_schedule_max_awake_dur, align 4
  %19 = tail call ptr @proto_tree_add_item(ptr noundef %2, i32 noundef %18, ptr noundef %0, i32 noundef 12, i32 noundef 4, i32 noundef -2147483648)
  %20 = load i32, ptr @hf_ieee80211_tag_wakeup_schedule_idle_count, align 4
  %21 = tail call ptr @proto_tree_add_item(ptr noundef %2, i32 noundef %20, ptr noundef %0, i32 noundef 16, i32 noundef 2, i32 noundef -2147483648)
  br label %22

22:                                               ; preds = %11, %7
  %23 = tail call i32 @tvb_captured_length(ptr noundef %0)
  ret i32 %23
}